; Function Attrs: mustprogress nofree norecurse nosync nounwind willreturn memory(argmem: write) uwtable
define void @_ZN32pxrInternal_v0_24__pxrReserved__39UsdImagingGenerateSphereOrCubeTransformEd(ptr dead_on_unwind noalias nocapture writable writeonly sret(%"class.pxrInternal_v0_24__pxrReserved__::GfMatrix4d") align 8 %0, double noundef %1) local_unnamed_addr #8 {
  store double %1, ptr %0, align 8
  %3 = getelementptr inbounds i8, ptr %0, i64 8
  %4 = getelementptr inbounds i8, ptr %0, i64 40
  tail call void @llvm.memset.p0.i64(ptr noundef nonnull align 8 dereferenceable(32) %3, i8 0, i64 32, i1 false)
  store double %1, ptr %4, align 8
  %5 = getelementptr inbounds i8, ptr %0, i64 48
  %6 = getelementptr inbounds i8, ptr %0, i64 80
  tail call void @llvm.memset.p0.i64(ptr noundef nonnull align 8 dereferenceable(32) %5, i8 0, i64 32, i1 false)
  store double %1, ptr %6, align 8
  %7 = getelementptr inbounds i8, ptr %0, i64 88
  %8 = getelementptr inbounds i8, ptr %0, i64 120
  tail call void @llvm.memset.p0.i64(ptr noundef nonnull align 8 dereferenceable(32) %7, i8 0, i64 32, i1 false)
  store double 1.000000e+00, ptr %8, align 8
  ret void
}